; Function Attrs: mustprogress uwtable
define noundef ptr @_ZN3nix9EvalState13allocBindingsEm(ptr noundef nonnull align 8 dereferenceable(1248) %0, i64 noundef %1) local_unnamed_addr #4 align 2 personality ptr @__gxx_personality_v0 {
  %3 = alloca i64, align 8
  %4 = alloca %"class.std::__cxx11::basic_string", align 8
  %5 = alloca %"class.std::allocator.20", align 1
  store i64 %1, ptr %3, align 8
  %6 = icmp eq i64 %1, 0
  br i1 %6, label %7, label %9

7:                                                ; preds = %2
  %8 = getelementptr inbounds i8, ptr %0, i64 344
  br label %33

9:                                                ; preds = %2
  %10 = icmp ugt i64 %1, 4294967295
  br i1 %10, label %11, label %19

11:                                               ; preds = %9
  %12 = tail call ptr @__cxa_allocate_exception(i64 376) #25
  call void @_ZNSaIcEC1Ev(ptr noundef nonnull align 1 dereferenceable(1) %5) #25
  invoke void @_ZNSt7__cxx1112basic_stringIcSt11char_traitsIcESaIcEEC2IS3_EEPKcRKS3_(ptr noundef nonnull align 8 dereferenceable(32) %4, ptr noundef nonnull @.str, ptr noundef nonnull align 1 dereferenceable(1) %5)
          to label %13 unwind label %.thread

13:                                               ; preds = %11
  invoke void @_ZN3nix5ErrorCI2NS_9BaseErrorEIJmEEERKNSt7__cxx1112basic_stringIcSt11char_traitsIcESaIcEEEDpRKT_(ptr noundef nonnull align 8 dereferenceable(376) %12, ptr noundef nonnull align 8 dereferenceable(32) %4, ptr noundef nonnull align 8 dereferenceable(8) %3)
          to label %14 unwind label %16

14:                                               ; preds = %13
  invoke void @__cxa_throw(ptr nonnull %12, ptr nonnull @_ZTIN3nix5ErrorE, ptr nonnull @_ZN3nix5ErrorD2Ev) #26
          to label %35 unwind label %16

.thread:                                          ; preds = %11
  %15 = landingpad { ptr, i32 }
          cleanup
  call void @_ZNSaIcED1Ev(ptr noundef nonnull align 1 dereferenceable(1) %5) #25
  br label %18

16:                                               ; preds = %13, %14
  %.0 = phi i1 [ false, %14 ], [ true, %13 ]
  %17 = landingpad { ptr, i32 }
          cleanup
  call void @_ZNSt7__cxx1112basic_stringIcSt11char_traitsIcESaIcEED2Ev(ptr noundef nonnull align 8 dereferenceable(32) %4) #25
  call void @_ZNSaIcED1Ev(ptr noundef nonnull align 1 dereferenceable(1) %5) #25
  br i1 %.0, label %18, label %34

18:                                               ; preds = %.thread, %16
  %.pn16 = phi { ptr, i32 } [ %15, %.thread ], [ %17, %16 ]
  call void @__cxa_free_exception(ptr %12) #25
  br label %34

19:                                               ; preds = %9
  %20 = getelementptr inbounds i8, ptr %0, i64 1032
  %21 = load <2 x i64>, ptr %20, align 8
  %22 = insertelement <2 x i64> <i64 1, i64 poison>, i64 %1, i64 1
  %23 = add <2 x i64> %21, %22
  store <2 x i64> %23, ptr %20, align 8
  %24 = shl nuw nsw i64 %1, 4
  %25 = add nuw nsw i64 %24, 16
  %26 = tail call noalias ptr @GC_malloc(i64 noundef %25) #27
  %.not = icmp eq ptr %26, null
  br i1 %.not, label %27, label %29

27:                                               ; preds = %19
  %28 = tail call ptr @__cxa_allocate_exception(i64 8) #25
  store ptr getelementptr inbounds ({ [5 x ptr] }, ptr @_ZTVSt9bad_alloc, i64 0, i32 0, i64 2), ptr %28, align 8
  tail call void @__cxa_throw(ptr nonnull %28, ptr nonnull @_ZTISt9bad_alloc, ptr nonnull @_ZNSt9bad_allocD1Ev) #26
  unreachable

29:                                               ; preds = %19
  %30 = trunc i64 %1 to i32
  store i32 0, ptr %26, align 4
  %31 = getelementptr inbounds i8, ptr %26, i64 4
  store i32 0, ptr %31, align 4
  %32 = getelementptr inbounds i8, ptr %26, i64 8
  store i32 %30, ptr %32, align 8
  br label %33

33:                                               ; preds = %29, %7
  %.09 = phi ptr [ %8, %7 ], [ %26, %29 ]
  ret ptr %.09

34:                                               ; preds = %16, %18
  %.pn15 = phi { ptr, i32 } [ %17, %16 ], [ %.pn16, %18 ]
  resume { ptr, i32 } %.pn15

35:                                               ; preds = %14
  unreachable
}